target datalayout = "e-m:e-p270:32:32-p271:32:32-p272:64:64-i64:64-i128:128-f80:128-n8:16:32:64-S128"
target triple = "x86_64-pc-linux-gnu"

%struct.prov_cipher_ctx_st = type { [16 x i8], [16 x i8], [16 x i8], ptr, %union.anon, i32, i64, i64, i64, i64, i32, i8, i32, ptr, i32, i64, i32, i64, i32, ptr, ptr, ptr }
%union.anon = type { ptr }
%struct.prov_tdes_ctx_st = type { %struct.prov_cipher_ctx_st, %union.anon.0, %union.anon.2 }
%union.anon.0 = type { double, [376 x i8] }
%union.anon.2 = type { ptr }
%struct.DES_ks = type { [16 x %union.anon.1] }
%union.anon.1 = type { [2 x i32] }

; Function Attrs: nounwind uwtable
define internal i32 @ossl_cipher_hw_tdes_ede2_initkey(ptr noundef %0, ptr noundef %1, i64 noundef %2) #0 {
  %4 = alloca ptr, align 8
  %5 = alloca ptr, align 8
  %6 = alloca i64, align 8
  %7 = alloca ptr, align 8
  %8 = alloca ptr, align 8
  store ptr %0, ptr %4, align 8, !tbaa !3
  store ptr %1, ptr %5, align 8, !tbaa !8
  store i64 %2, ptr %6, align 8, !tbaa !10
  call void @llvm.lifetime.start.p0(i64 8, ptr %7) #5
  %9 = load ptr, ptr %4, align 8, !tbaa !3
  store ptr %9, ptr %7, align 8, !tbaa !12
  call void @llvm.lifetime.start.p0(i64 8, ptr %8) #5
  %10 = load ptr, ptr %5, align 8, !tbaa !8
  store ptr %10, ptr %8, align 8, !tbaa !8
  %11 = load ptr, ptr %7, align 8, !tbaa !12
  %12 = getelementptr inbounds nuw %struct.prov_tdes_ctx_st, ptr %11, i32 0, i32 2
  store ptr null, ptr %12, align 8, !tbaa !23
  %13 = load ptr, ptr %8, align 8, !tbaa !8
  %14 = getelementptr inbounds [8 x i8], ptr %13, i64 0
  %15 = load ptr, ptr %7, align 8, !tbaa !12
  %16 = getelementptr inbounds nuw %struct.prov_tdes_ctx_st, ptr %15, i32 0, i32 1
  %17 = getelementptr inbounds [3 x %struct.DES_ks], ptr %16, i64 0, i64 0
  call void @DES_set_key_unchecked(ptr noundef %14, ptr noundef %17)
  %18 = load ptr, ptr %8, align 8, !tbaa !8
  %19 = getelementptr inbounds [8 x i8], ptr %18, i64 1
  %20 = load ptr, ptr %7, align 8, !tbaa !12
  %21 = getelementptr inbounds nuw %struct.prov_tdes_ctx_st, ptr %20, i32 0, i32 1
  %22 = getelementptr inbounds [3 x %struct.DES_ks], ptr %21, i64 0, i64 1
  call void @DES_set_key_unchecked(ptr noundef %19, ptr noundef %22)
  %23 = load ptr, ptr %7, align 8, !tbaa !12
  %24 = getelementptr inbounds nuw %struct.prov_tdes_ctx_st, ptr %23, i32 0, i32 1
  %25 = getelementptr inbounds [3 x %struct.DES_ks], ptr %24, i64 0, i64 2
  %26 = load ptr, ptr %7, align 8, !tbaa !12
  %27 = getelementptr inbounds nuw %struct.prov_tdes_ctx_st, ptr %26, i32 0, i32 1
  %28 = getelementptr inbounds [3 x %struct.DES_ks], ptr %27, i64 0, i64 0
  call void @llvm.memcpy.p0.p0.i64(ptr align 8 %25, ptr align 8 %28, i64 128, i1 false)
  call void @llvm.lifetime.end.p0(i64 8, ptr %8) #5
  call void @llvm.lifetime.end.p0(i64 8, ptr %7) #5
  ret i32 1
}