; Function Attrs: nounwind uwtable
define internal noundef i32 @ossl_cipher_hw_tdes_ede2_initkey(ptr noundef initializes((576, 584)) %0, ptr noundef %1, i64 %2) #2 {
  %4 = getelementptr inbounds nuw i8, ptr %0, i64 576
  store ptr null, ptr %4, align 8, !tbaa !17
  %5 = getelementptr inbounds nuw i8, ptr %0, i64 192
  tail call void @DES_set_key_unchecked(ptr noundef %1, ptr noundef nonnull %5) #5
  %6 = getelementptr inbounds nuw i8, ptr %1, i64 8
  %7 = getelementptr inbounds nuw i8, ptr %0, i64 320
  tail call void @DES_set_key_unchecked(ptr noundef nonnull %6, ptr noundef nonnull %7) #5
  %8 = getelementptr inbounds nuw i8, ptr %0, i64 448
  tail call void @llvm.memcpy.p0.p0.i64(ptr noundef nonnull align 8 dereferenceable(128) %8, ptr noundef nonnull align 8 dereferenceable(128) %5, i64 128, i1 false)
  ret i32 1
}